; Function Attrs: mustprogress nofree norecurse nosync nounwind willreturn memory(none) uwtable
define dso_local { i64, ptr } @_ZN11cmQtAutoGen13GeneratorNameENS_4GenTE(i32 noundef %0) local_unnamed_addr #3 align 2 personality ptr @__gxx_personality_v0 {
  %switch.tableidx = add i32 %0, -1
  %2 = icmp ult i32 %switch.tableidx, 3
  br i1 %2, label %switch.lookup, label %4

switch.lookup:                                    ; preds = %1
  %3 = zext nneg i32 %switch.tableidx to i64
  %switch.gep = getelementptr inbounds nuw [3 x ptr], ptr @switch.table._ZN11cmQtAutoGen13GeneratorNameENS_4GenTE, i64 0, i64 %3
  %switch.load = load ptr, ptr %switch.gep, align 8
  br label %4

4:                                                ; preds = %1, %switch.lookup
  %.sroa.6.0 = phi ptr [ %switch.load, %switch.lookup ], [ @.str, %1 ]
  %.fca.1.insert = insertvalue { i64, ptr } { i64 7, ptr poison }, ptr %.sroa.6.0, 1
  ret { i64, ptr } %.fca.1.insert
}